target datalayout = "e-m:e-p270:32:32-p271:32:32-p272:64:64-i64:64-i128:128-f80:128-n8:16:32:64-S128"
target triple = "x86_64-pc-linux-gnu"

%struct.FFHWAccel = type { %struct.AVHWAccel, ptr, ptr, ptr, ptr, ptr, i32, i32, i32, ptr, ptr, ptr, ptr, ptr, ptr }
%struct.AVHWAccel = type { ptr, i32, i32, i32, i32 }
%struct.AVCodecContext = type { ptr, i32, i32, ptr, i32, i32, ptr, ptr, ptr, i64, i32, i32, ptr, i32, %struct.AVRational, %struct.AVRational, %struct.AVRational, i32, i32, i32, i32, i32, %struct.AVRational, i32, i32, i32, i32, i32, i32, i32, i32, i32, i32, i32, ptr, ptr, i32, float, float, float, float, float, float, float, float, float, i32, i32, i32, i32, i32, i32, i32, i32, i32, i32, i32, i32, ptr, ptr, ptr, i32, i32, i32, i32, i32, i32, i32, i32, i32, i32, %struct.AVChannelLayout, i32, i32, i32, i32, i32, i32, i32, i32, ptr, i32, i32, i32, float, float, i32, i32, i32, i32, i32, ptr, i64, i64, float, float, i32, i32, ptr, ptr, i32, i32, i32, i32, i32, ptr, ptr, ptr, ptr, i32, i32, [8 x i64], i32, i32, i32, i32, i32, i32, i32, ptr, ptr, i32, i32, i32, i32, i32, i32, i32, i32, i32, i32, ptr, ptr, i32, i32, ptr, ptr, ptr, ptr, i32, i32, i64, i32, i32, i64, ptr, i64, ptr, i32, ptr, i32 }
%struct.AVRational = type { i32, i32 }
%struct.AVChannelLayout = type { i32, i32, %union.anon.1, ptr }
%union.anon.1 = type { i64 }
%struct.AV1DecContext = type { ptr, ptr, i32, ptr, %struct.CodedBitstreamFragment, ptr, ptr, ptr, ptr, ptr, ptr, ptr, ptr, ptr, ptr, ptr, %struct.DOVIContext, ptr, i16, i16, i16, i32, [8 x %struct.AV1Frame], %struct.AV1Frame, i32, i32, i32 }
%struct.CodedBitstreamFragment = type { ptr, i64, i64, ptr, i32, i32, ptr }
%struct.DOVIContext = type { ptr, i32, %struct.AVDOVIDecoderConfigurationRecord, %struct.AVDOVIRpuDataHeader, ptr, ptr, ptr, ptr, [16 x ptr], ptr, i32 }
%struct.AVDOVIDecoderConfigurationRecord = type { i8, i8, i8, i8, i8, i8, i8, i8, i8 }
%struct.AVDOVIRpuDataHeader = type { i8, i16, i8, i8, i8, i8, i8, i8, i8, i8, i8, i8, i8, i8, i8, i8, i8 }
%struct.AV1Frame = type { %union.anon.2, ptr, ptr, ptr, i32, i32, [8 x i8], [8 x i8], [8 x [6 x i32]], [2 x i8], %struct.AV1RawFilmGrainParams, i8, i8, [8 x i8], [8 x i8], i8 }
%union.anon.2 = type { %struct.ProgressFrame }
%struct.ProgressFrame = type { ptr, ptr }
%struct.AV1RawFilmGrainParams = type { i8, i16, i8, i8, i8, [14 x i8], [14 x i8], i8, i8, [10 x i8], [10 x i8], i8, [10 x i8], [10 x i8], i8, i8, [24 x i8], [25 x i8], [25 x i8], i8, i8, i8, i8, i16, i8, i8, i16, i8, i8 }
%struct.AV1RawMetadataITUTT35 = type { i8, i8, ptr, ptr, i64 }

; Function Attrs: inlinehint nounwind uwtable
define internal ptr @ffhwaccel(ptr noundef %0) #6 {
  %2 = alloca ptr, align 8
  store ptr %0, ptr %2, align 8, !tbaa !183
  %3 = load ptr, ptr %2, align 8, !tbaa !183
  ret ptr %3
}

; Function Attrs: nounwind uwtable
define internal void @av1_frame_unref(ptr noundef %0) #1 {
  %2 = alloca ptr, align 8
  store ptr %0, ptr %2, align 8, !tbaa !184
  %3 = load ptr, ptr %2, align 8, !tbaa !184
  %4 = getelementptr inbounds nuw %struct.AV1Frame, ptr %3, i32 0, i32 0
  call void @ff_progress_frame_unref(ptr noundef %4)
  %5 = load ptr, ptr %2, align 8, !tbaa !184
  %6 = getelementptr inbounds nuw %struct.AV1Frame, ptr %5, i32 0, i32 1
  call void @av_refstruct_unref(ptr noundef %6)
  %7 = load ptr, ptr %2, align 8, !tbaa !184
  %8 = getelementptr inbounds nuw %struct.AV1Frame, ptr %7, i32 0, i32 2
  call void @av_refstruct_unref(ptr noundef %8)
  %9 = load ptr, ptr %2, align 8, !tbaa !184
  %10 = getelementptr inbounds nuw %struct.AV1Frame, ptr %9, i32 0, i32 3
  store ptr null, ptr %10, align 8, !tbaa !187
  %11 = load ptr, ptr %2, align 8, !tbaa !184
  %12 = getelementptr inbounds nuw %struct.AV1Frame, ptr %11, i32 0, i32 4
  store i32 0, ptr %12, align 8, !tbaa !190
  %13 = load ptr, ptr %2, align 8, !tbaa !184
  %14 = getelementptr inbounds nuw %struct.AV1Frame, ptr %13, i32 0, i32 5
  store i32 0, ptr %14, align 4, !tbaa !189
  %15 = load ptr, ptr %2, align 8, !tbaa !184
  %16 = getelementptr inbounds nuw %struct.AV1Frame, ptr %15, i32 0, i32 9
  %17 = getelementptr inbounds [2 x i8], ptr %16, i64 0, i64 0
  call void @llvm.memset.p0.i64(ptr align 8 %17, i8 0, i64 2, i1 false)
  %18 = load ptr, ptr %2, align 8, !tbaa !184
  %19 = getelementptr inbounds nuw %struct.AV1Frame, ptr %18, i32 0, i32 10
  call void @llvm.memset.p0.i64(ptr align 2 %19, i8 0, i64 166, i1 false)
  %20 = load ptr, ptr %2, align 8, !tbaa !184
  %21 = getelementptr inbounds nuw %struct.AV1Frame, ptr %20, i32 0, i32 11
  store i8 0, ptr %21, align 8, !tbaa !191
  ret void
}

; Function Attrs: nounwind uwtable
define internal void @av1_decode_flush(ptr noundef %0) #1 {
  %2 = alloca ptr, align 8
  %3 = alloca ptr, align 8
  %4 = alloca %struct.AV1RawMetadataITUTT35, align 8
  %5 = alloca i32, align 4
  store ptr %0, ptr %2, align 8, !tbaa !4
  call void @llvm.lifetime.start.p0(i64 8, ptr %3) #11
  %6 = load ptr, ptr %2, align 8, !tbaa !4
  %7 = getelementptr inbounds nuw %struct.AVCodecContext, ptr %6, i32 0, i32 6
  %8 = load ptr, ptr %7, align 8, !tbaa !9
  store ptr %8, ptr %3, align 8, !tbaa !29
  call void @llvm.lifetime.start.p0(i64 32, ptr %4) #11
  call void @llvm.lifetime.start.p0(i64 4, ptr %5) #11
  store i32 0, ptr %5, align 4, !tbaa !62
  br label %9

9:                                                ; preds = %20, %1
  %10 = load i32, ptr %5, align 4, !tbaa !62
  %11 = sext i32 %10 to i64
  %12 = icmp ult i64 %11, 8
  br i1 %12, label %14, label %13

13:                                               ; preds = %9
  call void @llvm.lifetime.end.p0(i64 4, ptr %5) #11
  br label %23

14:                                               ; preds = %9
  %15 = load ptr, ptr %3, align 8, !tbaa !29
  %16 = getelementptr inbounds nuw %struct.AV1DecContext, ptr %15, i32 0, i32 22
  %17 = load i32, ptr %5, align 4, !tbaa !62
  %18 = sext i32 %17 to i64
  %19 = getelementptr inbounds [8 x %struct.AV1Frame], ptr %16, i64 0, i64 %18
  call void @av1_frame_unref(ptr noundef %19)
  br label %20

20:                                               ; preds = %14
  %21 = load i32, ptr %5, align 4, !tbaa !62
  %22 = add nsw i32 %21, 1
  store i32 %22, ptr %5, align 4, !tbaa !62
  br label %9, !llvm.loop !92

23:                                               ; preds = %13
  %24 = load ptr, ptr %3, align 8, !tbaa !29
  %25 = getelementptr inbounds nuw %struct.AV1DecContext, ptr %24, i32 0, i32 23
  call void @av1_frame_unref(ptr noundef %25)
  %26 = load ptr, ptr %3, align 8, !tbaa !29
  %27 = getelementptr inbounds nuw %struct.AV1DecContext, ptr %26, i32 0, i32 21
  store i32 0, ptr %27, align 8, !tbaa !93
  %28 = load ptr, ptr %3, align 8, !tbaa !29
  %29 = getelementptr inbounds nuw %struct.AV1DecContext, ptr %28, i32 0, i32 25
  store i32 0, ptr %29, align 4, !tbaa !86
  %30 = load ptr, ptr %3, align 8, !tbaa !29
  %31 = getelementptr inbounds nuw %struct.AV1DecContext, ptr %30, i32 0, i32 24
  store i32 0, ptr %31, align 8, !tbaa !87
  %32 = load ptr, ptr %3, align 8, !tbaa !29
  %33 = getelementptr inbounds nuw %struct.AV1DecContext, ptr %32, i32 0, i32 10
  store ptr null, ptr %33, align 8, !tbaa !94
  %34 = load ptr, ptr %3, align 8, !tbaa !29
  %35 = getelementptr inbounds nuw %struct.AV1DecContext, ptr %34, i32 0, i32 8
  store ptr null, ptr %35, align 8, !tbaa !95
  %36 = load ptr, ptr %3, align 8, !tbaa !29
  %37 = getelementptr inbounds nuw %struct.AV1DecContext, ptr %36, i32 0, i32 13
  store ptr null, ptr %37, align 8, !tbaa !96
  %38 = load ptr, ptr %3, align 8, !tbaa !29
  %39 = getelementptr inbounds nuw %struct.AV1DecContext, ptr %38, i32 0, i32 15
  store ptr null, ptr %39, align 8, !tbaa !97
  br label %40

40:                                               ; preds = %46, %23
  %41 = load ptr, ptr %3, align 8, !tbaa !29
  %42 = getelementptr inbounds nuw %struct.AV1DecContext, ptr %41, i32 0, i32 17
  %43 = load ptr, ptr %42, align 8, !tbaa !68
  %44 = call i32 @av_fifo_read(ptr noundef %43, ptr noundef %4, i64 noundef 1)
  %45 = icmp sge i32 %44, 0
  br i1 %45, label %46, label %48

46:                                               ; preds = %40
  %47 = getelementptr inbounds nuw %struct.AV1RawMetadataITUTT35, ptr %4, i32 0, i32 3
  call void @av_buffer_unref(ptr noundef %47)
  br label %40, !llvm.loop !98

48:                                               ; preds = %40
  %49 = load ptr, ptr %3, align 8, !tbaa !29
  %50 = getelementptr inbounds nuw %struct.AV1DecContext, ptr %49, i32 0, i32 4
  call void @ff_cbs_fragment_reset(ptr noundef %50)
  %51 = load ptr, ptr %3, align 8, !tbaa !29
  %52 = getelementptr inbounds nuw %struct.AV1DecContext, ptr %51, i32 0, i32 3
  %53 = load ptr, ptr %52, align 8, !tbaa !63
  call void @ff_cbs_flush(ptr noundef %53)
  %54 = load ptr, ptr %2, align 8, !tbaa !4
  %55 = getelementptr inbounds nuw %struct.AVCodecContext, ptr %54, i32 0, i32 105
  %56 = load ptr, ptr %55, align 8, !tbaa !99
  %57 = icmp ne ptr %56, null
  br i1 %57, label %58, label %74

58:                                               ; preds = %48
  %59 = load ptr, ptr %2, align 8, !tbaa !4
  %60 = getelementptr inbounds nuw %struct.AVCodecContext, ptr %59, i32 0, i32 105
  %61 = load ptr, ptr %60, align 8, !tbaa !99
  %62 = call ptr @ffhwaccel(ptr noundef %61)
  %63 = getelementptr inbounds nuw %struct.FFHWAccel, ptr %62, i32 0, i32 14
  %64 = load ptr, ptr %63, align 8, !tbaa !100
  %65 = icmp ne ptr %64, null
  br i1 %65, label %66, label %74

66:                                               ; preds = %58
  %67 = load ptr, ptr %2, align 8, !tbaa !4
  %68 = getelementptr inbounds nuw %struct.AVCodecContext, ptr %67, i32 0, i32 105
  %69 = load ptr, ptr %68, align 8, !tbaa !99
  %70 = call ptr @ffhwaccel(ptr noundef %69)
  %71 = getelementptr inbounds nuw %struct.FFHWAccel, ptr %70, i32 0, i32 14
  %72 = load ptr, ptr %71, align 8, !tbaa !100
  %73 = load ptr, ptr %2, align 8, !tbaa !4
  call void %72(ptr noundef %73)
  br label %74

74:                                               ; preds = %66, %58, %48
  call void @llvm.lifetime.end.p0(i64 32, ptr %4) #11
  call void @llvm.lifetime.end.p0(i64 8, ptr %3) #11
  ret void
}