; Function Attrs: nounwind uwtable
define internal void @av1_decode_flush(ptr noundef %0) #1 {
  %2 = alloca %struct.AV1RawMetadataITUTT35, align 8
  %3 = getelementptr inbounds nuw i8, ptr %0, i64 32
  %4 = load ptr, ptr %3, align 8, !tbaa !4
  call void @llvm.lifetime.start.p0(i64 32, ptr nonnull %2) #9
  %5 = getelementptr inbounds nuw i8, ptr %4, i64 416
  br label %24

6:                                                ; preds = %24
  %7 = getelementptr inbounds nuw i8, ptr %4, i64 4000
  tail call void @ff_progress_frame_unref(ptr noundef nonnull %7) #9
  %8 = getelementptr inbounds nuw i8, ptr %4, i64 4016
  tail call void @av_refstruct_unref(ptr noundef nonnull %8) #9
  %9 = getelementptr inbounds nuw i8, ptr %4, i64 4024
  tail call void @av_refstruct_unref(ptr noundef nonnull %9) #9
  %10 = getelementptr inbounds nuw i8, ptr %4, i64 4032
  %11 = getelementptr inbounds nuw i8, ptr %4, i64 4256
  tail call void @llvm.memset.p0.i64(ptr noundef nonnull align 8 dereferenceable(16) %10, i8 0, i64 16, i1 false)
  tail call void @llvm.memset.p0.i64(ptr noundef nonnull align 8 dereferenceable(169) %11, i8 0, i64 169, i1 false)
  %12 = getelementptr inbounds nuw i8, ptr %4, i64 408
  store i32 0, ptr %12, align 8, !tbaa !96
  %13 = getelementptr inbounds nuw i8, ptr %4, i64 4452
  store i32 0, ptr %13, align 4, !tbaa !79
  %14 = getelementptr inbounds nuw i8, ptr %4, i64 4448
  store i32 0, ptr %14, align 8, !tbaa !80
  %15 = getelementptr inbounds nuw i8, ptr %4, i64 120
  store ptr null, ptr %15, align 8, !tbaa !101
  %16 = getelementptr inbounds nuw i8, ptr %4, i64 104
  store ptr null, ptr %16, align 8, !tbaa !94
  %17 = getelementptr inbounds nuw i8, ptr %4, i64 144
  store ptr null, ptr %17, align 8, !tbaa !192
  %18 = getelementptr inbounds nuw i8, ptr %4, i64 160
  store ptr null, ptr %18, align 8, !tbaa !193
  %19 = getelementptr inbounds nuw i8, ptr %4, i64 392
  %20 = load ptr, ptr %19, align 8, !tbaa !64
  %21 = call i32 @av_fifo_read(ptr noundef %20, ptr noundef nonnull %2, i64 noundef 1) #9
  %22 = icmp sgt i32 %21, -1
  br i1 %22, label %.lr.ph, label %._crit_edge

.lr.ph:                                           ; preds = %6
  %23 = getelementptr inbounds nuw i8, ptr %2, i64 16
  br label %30

24:                                               ; preds = %1, %24
  %indvars.iv = phi i64 [ 0, %1 ], [ %indvars.iv.next, %24 ]
  %25 = getelementptr inbounds nuw [8 x %struct.AV1Frame], ptr %5, i64 0, i64 %indvars.iv
  tail call void @ff_progress_frame_unref(ptr noundef nonnull %25) #9
  %26 = getelementptr inbounds nuw i8, ptr %25, i64 16
  tail call void @av_refstruct_unref(ptr noundef nonnull %26) #9
  %27 = getelementptr inbounds nuw i8, ptr %25, i64 24
  tail call void @av_refstruct_unref(ptr noundef nonnull %27) #9
  %28 = getelementptr inbounds nuw i8, ptr %25, i64 32
  %29 = getelementptr inbounds nuw i8, ptr %25, i64 256
  tail call void @llvm.memset.p0.i64(ptr noundef nonnull align 8 dereferenceable(16) %28, i8 0, i64 16, i1 false)
  tail call void @llvm.memset.p0.i64(ptr noundef nonnull align 8 dereferenceable(169) %29, i8 0, i64 169, i1 false)
  %indvars.iv.next = add nuw nsw i64 %indvars.iv, 1
  %exitcond.not = icmp eq i64 %indvars.iv.next, 8
  br i1 %exitcond.not, label %6, label %24, !llvm.loop !203

30:                                               ; preds = %.lr.ph, %30
  call void @av_buffer_unref(ptr noundef nonnull %23) #9
  %31 = load ptr, ptr %19, align 8, !tbaa !64
  %32 = call i32 @av_fifo_read(ptr noundef %31, ptr noundef nonnull %2, i64 noundef 1) #9
  %33 = icmp sgt i32 %32, -1
  br i1 %33, label %30, label %._crit_edge, !llvm.loop !204

._crit_edge:                                      ; preds = %30, %6
  %34 = getelementptr inbounds nuw i8, ptr %4, i64 32
  call void @ff_cbs_fragment_reset(ptr noundef nonnull %34) #9
  %35 = getelementptr inbounds nuw i8, ptr %4, i64 24
  %36 = load ptr, ptr %35, align 8, !tbaa !59
  call void @ff_cbs_flush(ptr noundef %36) #9
  %37 = getelementptr inbounds nuw i8, ptr %0, i64 536
  %38 = load ptr, ptr %37, align 8, !tbaa !97
  %.not = icmp eq ptr %38, null
  br i1 %.not, label %43, label %39

39:                                               ; preds = %._crit_edge
  %40 = getelementptr inbounds nuw i8, ptr %38, i64 120
  %41 = load ptr, ptr %40, align 8, !tbaa !205
  %.not21 = icmp eq ptr %41, null
  br i1 %.not21, label %43, label %42

42:                                               ; preds = %39
  call void %41(ptr noundef nonnull %0) #9
  br label %43

43:                                               ; preds = %42, %39, %._crit_edge
  call void @llvm.lifetime.end.p0(i64 32, ptr nonnull %2) #9
  ret void
}